target datalayout = "e-m:e-p270:32:32-p271:32:32-p272:64:64-i64:64-i128:128-f80:128-n8:16:32:64-S128"
target triple = "x86_64-pc-linux-gnu"

; Function Attrs: mustprogress uwtable
define hidden void @_ZN6Assimp3FBX4Node13EndPropertiesERNS_12StreamWriterILb0ELb0EEEbim(ptr noundef nonnull align 8 dereferenceable(112) %0, ptr noundef nonnull align 8 dereferenceable(56) %1, i1 noundef zeroext %2, i32 noundef %3, i64 noundef %4) #3 align 2 {
  %6 = alloca ptr, align 8
  %7 = alloca ptr, align 8
  %8 = alloca i8, align 1
  %9 = alloca i32, align 4
  %10 = alloca i64, align 8
  store ptr %0, ptr %6, align 8
  store ptr %1, ptr %7, align 8
  %11 = zext i1 %2 to i8
  store i8 %11, ptr %8, align 1
  store i32 %3, ptr %9, align 4
  store i64 %4, ptr %10, align 8
  %12 = load ptr, ptr %6, align 8
  %13 = load i8, ptr %8, align 1, !range !3, !noundef !4
  %14 = trunc i8 %13 to i1
  br i1 %14, label %15, label %18

15:                                               ; preds = %5
  %16 = load ptr, ptr %7, align 8
  %17 = load i64, ptr %10, align 8
  call void @_ZN6Assimp3FBX4Node19EndPropertiesBinaryERNS_12StreamWriterILb0ELb0EEEm(ptr noundef nonnull align 8 dereferenceable(112) %12, ptr noundef nonnull align 8 dereferenceable(56) %16, i64 noundef %17)
  br label %19

18:                                               ; preds = %5
  br label %19

19:                                               ; preds = %18, %15
  ret void
}