; Function Attrs: mustprogress uwtable
define hidden void @_ZN6Assimp3FBX4Node13EndPropertiesERNS_12StreamWriterILb0ELb0EEEbim(ptr noundef nonnull readonly align 8 captures(none) dereferenceable(112) %0, ptr noundef nonnull align 8 dereferenceable(56) %1, i1 noundef zeroext %2, i32 noundef %3, i64 noundef %4) local_unnamed_addr #3 align 2 {
  br i1 %2, label %6, label %7

6:                                                ; preds = %5
  tail call void @_ZN6Assimp3FBX4Node19EndPropertiesBinaryERNS_12StreamWriterILb0ELb0EEEm(ptr noundef nonnull align 8 dereferenceable(112) %0, ptr noundef nonnull align 8 dereferenceable(56) %1, i64 noundef %4)
  br label %7

7:                                                ; preds = %5, %6
  ret void
}